; ModuleID = '25/1338.cpp'
source_filename = "25/1338.cpp"
target datalayout = "e-m:e-p270:32:32-p271:32:32-p272:64:64-i64:64-f80:128-n8:16:32:64-S128"
target triple = "x86_64-pc-linux-gnu"

%"class.std::ios_base::Init" = type { i8 }
%"class.std::basic_istream" = type { i32 (...)**, i64, %"class.std::basic_ios" }
%"class.std::basic_ios" = type { %"class.std::ios_base", %"class.std::basic_ostream"*, i8, i8, %"class.std::basic_streambuf"*, %"class.std::ctype"*, %"class.std::num_put"*, %"class.std::num_get"* }
%"class.std::ios_base" = type { i32 (...)**, i64, i64, i32, i32, i32, %"struct.std::ios_base::_Callback_list"*, %"struct.std::ios_base::_Words", [8 x %"struct.std::ios_base::_Words"], i32, %"struct.std::ios_base::_Words"*, %"class.std::locale" }
%"struct.std::ios_base::_Callback_list" = type { %"struct.std::ios_base::_Callback_list"*, void (i32, %"class.std::ios_base"*, i32)*, i32, i32 }
%"struct.std::ios_base::_Words" = type { i8*, i64 }
%"class.std::locale" = type { %"class.std::locale::_Impl"* }
%"class.std::locale::_Impl" = type { i32, %"class.std::locale::facet"**, i64, %"class.std::locale::facet"**, i8** }
%"class.std::locale::facet" = type <{ i32 (...)**, i32, [4 x i8] }>
%"class.std::basic_ostream" = type { i32 (...)**, %"class.std::basic_ios" }
%"class.std::basic_streambuf" = type { i32 (...)**, i8*, i8*, i8*, i8*, i8*, i8*, %"class.std::locale" }
%"class.std::ctype" = type <{ %"class.std::locale::facet.base", [4 x i8], %struct.__locale_struct*, i8, [7 x i8], i32*, i32*, i16*, i8, [256 x i8], [256 x i8], i8, [6 x i8] }>
%"class.std::locale::facet.base" = type <{ i32 (...)**, i32 }>
%struct.__locale_struct = type { [13 x %struct.__locale_data*], i16*, i32*, i32*, [13 x i8*] }
%struct.__locale_data = type opaque
%"class.std::num_put" = type { %"class.std::locale::facet.base", [4 x i8] }
%"class.std::num_get" = type { %"class.std::locale::facet.base", [4 x i8] }

@_ZStL8__ioinit = internal global %"class.std::ios_base::Init" zeroinitializer, align 1
@__dso_handle = external hidden global i8
@_ZSt3cin = external dso_local global %"class.std::basic_istream", align 8
@_ZSt4cout = external dso_local global %"class.std::basic_ostream", align 8
@llvm.global_ctors = appending global [1 x { i32, void ()*, i8* }] [{ i32, void ()*, i8* } { i32 65535, void ()* @_GLOBAL__sub_I_1338.cpp, i8* null }]

; Function Attrs: noinline uwtable
define internal void @__cxx_global_var_init() #0 section ".text.startup" {
  call void @_ZNSt8ios_base4InitC1Ev(%"class.std::ios_base::Init"* @_ZStL8__ioinit)
  %1 = call i32 @__cxa_atexit(void (i8*)* bitcast (void (%"class.std::ios_base::Init"*)* @_ZNSt8ios_base4InitD1Ev to void (i8*)*), i8* getelementptr inbounds (%"class.std::ios_base::Init", %"class.std::ios_base::Init"* @_ZStL8__ioinit, i32 0, i32 0), i8* @__dso_handle) #3
  ret void
}

declare dso_local void @_ZNSt8ios_base4InitC1Ev(%"class.std::ios_base::Init"*) unnamed_addr #1

; Function Attrs: nounwind
declare dso_local void @_ZNSt8ios_base4InitD1Ev(%"class.std::ios_base::Init"*) unnamed_addr #2

; Function Attrs: nounwind
declare dso_local i32 @__cxa_atexit(void (i8*)*, i8*, i8*) #3

; Function Attrs: noinline norecurse uwtable
define dso_local i32 @main() #4 {
  %1 = alloca i32, align 4
  %2 = alloca [10000 x i32], align 16
  %3 = alloca i32, align 4
  %4 = alloca i32, align 4
  %5 = alloca i32, align 4
  %6 = alloca i32, align 4
  %7 = alloca i32, align 4
  %8 = alloca i32, align 4
  store i32 0, i32* %1, align 4
  store i32 1, i32* %4, align 4
  %9 = call dereferenceable(280) %"class.std::basic_istream"* @_ZNSirsERi(%"class.std::basic_istream"* @_ZSt3cin, i32* dereferenceable(4) %3)
  %10 = getelementptr inbounds [10000 x i32], [10000 x i32]* %2, i64 0, i64 1
  store i32 1, i32* %10, align 4
  store i32 1, i32* %6, align 4
  br label %11

11:                                               ; preds = %62, %0
  %12 = load i32, i32* %6, align 4
  %13 = load i32, i32* %3, align 4
  %14 = icmp sle i32 %12, %13
  br i1 %14, label %15, label %65

15:                                               ; preds = %11
  store i32 0, i32* %5, align 4
  store i32 1, i32* %7, align 4
  br label %16

16:                                               ; preds = %48, %15
  %17 = load i32, i32* %7, align 4
  %18 = load i32, i32* %4, align 4
  %19 = icmp sle i32 %17, %18
  br i1 %19, label %20, label %51

20:                                               ; preds = %16
  %21 = load i32, i32* %7, align 4
  %22 = sext i32 %21 to i64
  %23 = getelementptr inbounds [10000 x i32], [10000 x i32]* %2, i64 0, i64 %22
  %24 = load i32, i32* %23, align 4
  %25 = mul nsw i32 %24, 2
  store i32 %25, i32* %23, align 4
  %26 = load i32, i32* %5, align 4
  %27 = load i32, i32* %7, align 4
  %28 = sext i32 %27 to i64
  %29 = getelementptr inbounds [10000 x i32], [10000 x i32]* %2, i64 0, i64 %28
  %30 = load i32, i32* %29, align 4
  %31 = add nsw i32 %30, %26
  store i32 %31, i32* %29, align 4
  %32 = load i32, i32* %7, align 4
  %33 = sext i32 %32 to i64
  %34 = getelementptr inbounds [10000 x i32], [10000 x i32]* %2, i64 0, i64 %33
  %35 = load i32, i32* %34, align 4
  %36 = icmp sge i32 %35, 10
  br i1 %36, label %37, label %46

37:                                               ; preds = %20
  %38 = load i32, i32* %7, align 4
  %39 = sext i32 %38 to i64
  %40 = getelementptr inbounds [10000 x i32], [10000 x i32]* %2, i64 0, i64 %39
  %41 = load i32, i32* %40, align 4
  %42 = sub nsw i32 %41, 10
  %43 = load i32, i32* %7, align 4
  %44 = sext i32 %43 to i64
  %45 = getelementptr inbounds [10000 x i32], [10000 x i32]* %2, i64 0, i64 %44
  store i32 %42, i32* %45, align 4
  store i32 1, i32* %5, align 4
  br label %47

46:                                               ; preds = %20
  store i32 0, i32* %5, align 4
  br label %47

47:                                               ; preds = %46, %37
  br label %48

48:                                               ; preds = %47
  %49 = load i32, i32* %7, align 4
  %50 = add nsw i32 %49, 1
  store i32 %50, i32* %7, align 4
  br label %16

51:                                               ; preds = %16
  %52 = load i32, i32* %5, align 4
  %53 = icmp eq i32 %52, 1
  br i1 %53, label %54, label %61

54:                                               ; preds = %51
  %55 = load i32, i32* %4, align 4
  %56 = add nsw i32 %55, 1
  %57 = sext i32 %56 to i64
  %58 = getelementptr inbounds [10000 x i32], [10000 x i32]* %2, i64 0, i64 %57
  store i32 1, i32* %58, align 4
  %59 = load i32, i32* %4, align 4
  %60 = add nsw i32 %59, 1
  store i32 %60, i32* %4, align 4
  br label %61

61:                                               ; preds = %54, %51
  br label %62

62:                                               ; preds = %61
  %63 = load i32, i32* %6, align 4
  %64 = add nsw i32 %63, 1
  store i32 %64, i32* %6, align 4
  br label %11

65:                                               ; preds = %11
  %66 = load i32, i32* %4, align 4
  store i32 %66, i32* %8, align 4
  br label %67

67:                                               ; preds = %76, %65
  %68 = load i32, i32* %8, align 4
  %69 = icmp sge i32 %68, 1
  br i1 %69, label %70, label %79

70:                                               ; preds = %67
  %71 = load i32, i32* %8, align 4
  %72 = sext i32 %71 to i64
  %73 = getelementptr inbounds [10000 x i32], [10000 x i32]* %2, i64 0, i64 %72
  %74 = load i32, i32* %73, align 4
  %75 = call dereferenceable(272) %"class.std::basic_ostream"* @_ZNSolsEi(%"class.std::basic_ostream"* @_ZSt4cout, i32 %74)
  br label %76

76:                                               ; preds = %70
  %77 = load i32, i32* %8, align 4
  %78 = add nsw i32 %77, -1
  store i32 %78, i32* %8, align 4
  br label %67

79:                                               ; preds = %67
  %80 = call dereferenceable(272) %"class.std::basic_ostream"* @_ZNSolsEPFRSoS_E(%"class.std::basic_ostream"* @_ZSt4cout, %"class.std::basic_ostream"* (%"class.std::basic_ostream"*)* @_ZSt4endlIcSt11char_traitsIcEERSt13basic_ostreamIT_T0_ES6_)
  ret i32 0
}

declare dso_local dereferenceable(280) %"class.std::basic_istream"* @_ZNSirsERi(%"class.std::basic_istream"*, i32* dereferenceable(4)) #1

declare dso_local dereferenceable(272) %"class.std::basic_ostream"* @_ZNSolsEi(%"class.std::basic_ostream"*, i32) #1

declare dso_local dereferenceable(272) %"class.std::basic_ostream"* @_ZNSolsEPFRSoS_E(%"class.std::basic_ostream"*, %"class.std::basic_ostream"* (%"class.std::basic_ostream"*)*) #1

declare dso_local dereferenceable(272) %"class.std::basic_ostream"* @_ZSt4endlIcSt11char_traitsIcEERSt13basic_ostreamIT_T0_ES6_(%"class.std::basic_ostream"* dereferenceable(272)) #1

; Function Attrs: noinline uwtable
define internal void @_GLOBAL__sub_I_1338.cpp() #0 section ".text.startup" {
  call void @__cxx_global_var_init()
  ret void
}


!llvm.module.flags = !{!0}
!llvm.ident = !{!1}

!0 = !{i32 1, !"wchar_size", i32 4}
!1 = !{!"clang version 10.0.0-4ubuntu1 "}
